target datalayout = "e-m:e-p270:32:32-p271:32:32-p272:64:64-i64:64-i128:128-f80:128-n8:16:32:64-S128"
target triple = "x86_64-pc-linux-gnu"

%struct.UCaseProps = type { ptr, ptr, ptr, ptr, %struct.UTrie2, [4 x i8] }
%struct.UTrie2 = type { ptr, ptr, ptr, i32, i32, i16, i16, i32, i32, i32, i32, ptr, i32, i8, i8, i16, ptr }
%struct.USetAdder = type { ptr, ptr, ptr, ptr, ptr, ptr }

; Function Attrs: inlinehint mustprogress nounwind uwtable
define internal noundef i32 @_ZL9strcmpMaxPKDsiS0_i(ptr noundef %0, i32 noundef %1, ptr noundef %2, i32 noundef %3) #1 {
  %5 = alloca i32, align 4
  %6 = alloca ptr, align 8
  %7 = alloca i32, align 4
  %8 = alloca ptr, align 8
  %9 = alloca i32, align 4
  %10 = alloca i32, align 4
  %11 = alloca i32, align 4
  %12 = alloca i32, align 4
  store ptr %0, ptr %6, align 8, !tbaa !32
  store i32 %1, ptr %7, align 4, !tbaa !11
  store ptr %2, ptr %8, align 8, !tbaa !32
  store i32 %3, ptr %9, align 4, !tbaa !11
  call void @llvm.lifetime.start.p0(i64 4, ptr %10) #5
  call void @llvm.lifetime.start.p0(i64 4, ptr %11) #5
  %13 = load i32, ptr %7, align 4, !tbaa !11
  %14 = load i32, ptr %9, align 4, !tbaa !11
  %15 = sub nsw i32 %14, %13
  store i32 %15, ptr %9, align 4, !tbaa !11
  br label %16

16:                                               ; preds = %37, %4
  %17 = load ptr, ptr %6, align 8, !tbaa !32
  %18 = getelementptr inbounds nuw i16, ptr %17, i32 1
  store ptr %18, ptr %6, align 8, !tbaa !32
  %19 = load i16, ptr %17, align 2, !tbaa !34
  %20 = zext i16 %19 to i32
  store i32 %20, ptr %10, align 4, !tbaa !11
  %21 = load ptr, ptr %8, align 8, !tbaa !32
  %22 = getelementptr inbounds nuw i16, ptr %21, i32 1
  store ptr %22, ptr %8, align 8, !tbaa !32
  %23 = load i16, ptr %21, align 2, !tbaa !34
  %24 = zext i16 %23 to i32
  store i32 %24, ptr %11, align 4, !tbaa !11
  %25 = load i32, ptr %11, align 4, !tbaa !11
  %26 = icmp eq i32 %25, 0
  br i1 %26, label %27, label %28

27:                                               ; preds = %16
  store i32 1, ptr %5, align 4
  store i32 1, ptr %12, align 4
  br label %53

28:                                               ; preds = %16
  %29 = load i32, ptr %11, align 4, !tbaa !11
  %30 = load i32, ptr %10, align 4, !tbaa !11
  %31 = sub nsw i32 %30, %29
  store i32 %31, ptr %10, align 4, !tbaa !11
  %32 = load i32, ptr %10, align 4, !tbaa !11
  %33 = icmp ne i32 %32, 0
  br i1 %33, label %34, label %36

34:                                               ; preds = %28
  %35 = load i32, ptr %10, align 4, !tbaa !11
  store i32 %35, ptr %5, align 4
  store i32 1, ptr %12, align 4
  br label %53

36:                                               ; preds = %28
  br label %37

37:                                               ; preds = %36
  %38 = load i32, ptr %7, align 4, !tbaa !11
  %39 = add nsw i32 %38, -1
  store i32 %39, ptr %7, align 4, !tbaa !11
  %40 = icmp sgt i32 %39, 0
  br i1 %40, label %16, label %41, !llvm.loop !42

41:                                               ; preds = %37
  %42 = load i32, ptr %9, align 4, !tbaa !11
  %43 = icmp eq i32 %42, 0
  br i1 %43, label %49, label %44

44:                                               ; preds = %41
  %45 = load ptr, ptr %8, align 8, !tbaa !32
  %46 = load i16, ptr %45, align 2, !tbaa !34
  %47 = zext i16 %46 to i32
  %48 = icmp eq i32 %47, 0
  br i1 %48, label %49, label %50

49:                                               ; preds = %44, %41
  store i32 0, ptr %5, align 4
  store i32 1, ptr %12, align 4
  br label %53

50:                                               ; preds = %44
  %51 = load i32, ptr %9, align 4, !tbaa !11
  %52 = sub nsw i32 0, %51
  store i32 %52, ptr %5, align 4
  store i32 1, ptr %12, align 4
  br label %53

53:                                               ; preds = %50, %49, %34, %27
  call void @llvm.lifetime.end.p0(i64 4, ptr %11) #5
  call void @llvm.lifetime.end.p0(i64 4, ptr %10) #5
  %54 = load i32, ptr %5, align 4
  ret i32 %54
}

; Function Attrs: mustprogress uwtable
define signext i8 @ucase_addStringCaseClosure_77(ptr noundef %0, i32 noundef %1, ptr noundef %2) #0 {
  %4 = alloca i8, align 1
  %5 = alloca ptr, align 8
  %6 = alloca i32, align 4
  %7 = alloca ptr, align 8
  %8 = alloca i32, align 4
  %9 = alloca i32, align 4
  %10 = alloca i32, align 4
  %11 = alloca i32, align 4
  %12 = alloca i32, align 4
  %13 = alloca i32, align 4
  %14 = alloca i32, align 4
  %15 = alloca i32, align 4
  %16 = alloca ptr, align 8
  %17 = alloca ptr, align 8
  %18 = alloca i32, align 4
  store ptr %0, ptr %5, align 8, !tbaa !32
  store i32 %1, ptr %6, align 4, !tbaa !11
  store ptr %2, ptr %7, align 8, !tbaa !3
  call void @llvm.lifetime.start.p0(i64 4, ptr %8) #5
  call void @llvm.lifetime.start.p0(i64 4, ptr %9) #5
  call void @llvm.lifetime.start.p0(i64 4, ptr %10) #5
  call void @llvm.lifetime.start.p0(i64 4, ptr %11) #5
  call void @llvm.lifetime.start.p0(i64 4, ptr %12) #5
  call void @llvm.lifetime.start.p0(i64 4, ptr %13) #5
  call void @llvm.lifetime.start.p0(i64 4, ptr %14) #5
  %19 = load ptr, ptr %5, align 8, !tbaa !32
  %20 = icmp eq ptr %19, null
  br i1 %20, label %21, label %22

21:                                               ; preds = %3
  store i8 0, ptr %4, align 1
  store i32 1, ptr %15, align 4
  br label %140

22:                                               ; preds = %3
  %23 = load i32, ptr %6, align 4, !tbaa !11
  %24 = icmp sle i32 %23, 1
  br i1 %24, label %25, label %26

25:                                               ; preds = %22
  store i8 0, ptr %4, align 1
  store i32 1, ptr %15, align 4
  br label %140

26:                                               ; preds = %22
  call void @llvm.lifetime.start.p0(i64 8, ptr %16) #5
  %27 = load ptr, ptr getelementptr inbounds nuw (%struct.UCaseProps, ptr @_ZL21ucase_props_singleton, i32 0, i32 3), align 8, !tbaa !39
  store ptr %27, ptr %16, align 8, !tbaa !27
  %28 = load ptr, ptr %16, align 8, !tbaa !27
  %29 = getelementptr inbounds nuw i16, ptr %28, i64 0
  %30 = load i16, ptr %29, align 2, !tbaa !25
  %31 = zext i16 %30 to i32
  store i32 %31, ptr %12, align 4, !tbaa !11
  %32 = load ptr, ptr %16, align 8, !tbaa !27
  %33 = getelementptr inbounds nuw i16, ptr %32, i64 1
  %34 = load i16, ptr %33, align 2, !tbaa !25
  %35 = zext i16 %34 to i32
  store i32 %35, ptr %13, align 4, !tbaa !11
  %36 = load ptr, ptr %16, align 8, !tbaa !27
  %37 = getelementptr inbounds nuw i16, ptr %36, i64 2
  %38 = load i16, ptr %37, align 2, !tbaa !25
  %39 = zext i16 %38 to i32
  store i32 %39, ptr %14, align 4, !tbaa !11
  %40 = load i32, ptr %13, align 4, !tbaa !11
  %41 = load ptr, ptr %16, align 8, !tbaa !27
  %42 = sext i32 %40 to i64
  %43 = getelementptr inbounds i16, ptr %41, i64 %42
  store ptr %43, ptr %16, align 8, !tbaa !27
  %44 = load i32, ptr %6, align 4, !tbaa !11
  %45 = load i32, ptr %14, align 4, !tbaa !11
  %46 = icmp sgt i32 %44, %45
  br i1 %46, label %47, label %48

47:                                               ; preds = %26
  store i8 0, ptr %4, align 1
  store i32 1, ptr %15, align 4
  br label %139

48:                                               ; preds = %26
  store i32 0, ptr %9, align 4, !tbaa !11
  %49 = load i32, ptr %12, align 4, !tbaa !11
  store i32 %49, ptr %10, align 4, !tbaa !11
  br label %50

50:                                               ; preds = %137, %48
  %51 = load i32, ptr %9, align 4, !tbaa !11
  %52 = load i32, ptr %10, align 4, !tbaa !11
  %53 = icmp slt i32 %51, %52
  br i1 %53, label %54, label %138

54:                                               ; preds = %50
  %55 = load i32, ptr %9, align 4, !tbaa !11
  %56 = load i32, ptr %10, align 4, !tbaa !11
  %57 = add nsw i32 %55, %56
  %58 = sdiv i32 %57, 2
  store i32 %58, ptr %8, align 4, !tbaa !11
  call void @llvm.lifetime.start.p0(i64 8, ptr %17) #5
  %59 = load ptr, ptr %16, align 8, !tbaa !27
  %60 = load i32, ptr %8, align 4, !tbaa !11
  %61 = load i32, ptr %13, align 4, !tbaa !11
  %62 = mul nsw i32 %60, %61
  %63 = sext i32 %62 to i64
  %64 = getelementptr inbounds i16, ptr %59, i64 %63
  store ptr %64, ptr %17, align 8, !tbaa !32
  %65 = load ptr, ptr %5, align 8, !tbaa !32
  %66 = load i32, ptr %6, align 4, !tbaa !11
  %67 = load ptr, ptr %17, align 8, !tbaa !32
  %68 = load i32, ptr %14, align 4, !tbaa !11
  %69 = call noundef i32 @_ZL9strcmpMaxPKDsiS0_i(ptr noundef %65, i32 noundef %66, ptr noundef %67, i32 noundef %68)
  store i32 %69, ptr %11, align 4, !tbaa !11
  %70 = load i32, ptr %11, align 4, !tbaa !11
  %71 = icmp eq i32 %70, 0
  br i1 %71, label %72, label %125

72:                                               ; preds = %54
  call void @llvm.lifetime.start.p0(i64 4, ptr %18) #5
  %73 = load i32, ptr %14, align 4, !tbaa !11
  store i32 %73, ptr %8, align 4, !tbaa !11
  br label %74

74:                                               ; preds = %114, %72
  %75 = load i32, ptr %8, align 4, !tbaa !11
  %76 = load i32, ptr %13, align 4, !tbaa !11
  %77 = icmp slt i32 %75, %76
  br i1 %77, label %78, label %86

78:                                               ; preds = %74
  %79 = load ptr, ptr %17, align 8, !tbaa !32
  %80 = load i32, ptr %8, align 4, !tbaa !11
  %81 = sext i32 %80 to i64
  %82 = getelementptr inbounds i16, ptr %79, i64 %81
  %83 = load i16, ptr %82, align 2, !tbaa !34
  %84 = zext i16 %83 to i32
  %85 = icmp ne i32 %84, 0
  br label %86

86:                                               ; preds = %78, %74
  %87 = phi i1 [ false, %74 ], [ %85, %78 ]
  br i1 %87, label %88, label %124

88:                                               ; preds = %86
  br label %89

89:                                               ; preds = %88
  %90 = load ptr, ptr %17, align 8, !tbaa !32
  %91 = load i32, ptr %8, align 4, !tbaa !11
  %92 = add nsw i32 %91, 1
  store i32 %92, ptr %8, align 4, !tbaa !11
  %93 = sext i32 %91 to i64
  %94 = getelementptr inbounds i16, ptr %90, i64 %93
  %95 = load i16, ptr %94, align 2, !tbaa !34
  %96 = zext i16 %95 to i32
  store i32 %96, ptr %18, align 4, !tbaa !11
  %97 = load i32, ptr %18, align 4, !tbaa !11
  %98 = and i32 %97, -1024
  %99 = icmp eq i32 %98, 55296
  br i1 %99, label %100, label %112

100:                                              ; preds = %89
  %101 = load i32, ptr %18, align 4, !tbaa !11
  %102 = shl i32 %101, 10
  %103 = load ptr, ptr %17, align 8, !tbaa !32
  %104 = load i32, ptr %8, align 4, !tbaa !11
  %105 = add nsw i32 %104, 1
  store i32 %105, ptr %8, align 4, !tbaa !11
  %106 = sext i32 %104 to i64
  %107 = getelementptr inbounds i16, ptr %103, i64 %106
  %108 = load i16, ptr %107, align 2, !tbaa !34
  %109 = zext i16 %108 to i32
  %110 = add nsw i32 %102, %109
  %111 = sub nsw i32 %110, 56613888
  store i32 %111, ptr %18, align 4, !tbaa !11
  br label %112

112:                                              ; preds = %100, %89
  br label %113

113:                                              ; preds = %112
  br label %114

114:                                              ; preds = %113
  %115 = load ptr, ptr %7, align 8, !tbaa !3
  %116 = getelementptr inbounds nuw %struct.USetAdder, ptr %115, i32 0, i32 1
  %117 = load ptr, ptr %116, align 8, !tbaa !13
  %118 = load ptr, ptr %7, align 8, !tbaa !3
  %119 = getelementptr inbounds nuw %struct.USetAdder, ptr %118, i32 0, i32 0
  %120 = load ptr, ptr %119, align 8, !tbaa !16
  %121 = load i32, ptr %18, align 4, !tbaa !11
  call void %117(ptr noundef %120, i32 noundef %121)
  %122 = load i32, ptr %18, align 4, !tbaa !11
  %123 = load ptr, ptr %7, align 8, !tbaa !3
  call void @ucase_addCaseClosure_77(i32 noundef %122, ptr noundef %123)
  br label %74, !llvm.loop !40

124:                                              ; preds = %86
  store i8 1, ptr %4, align 1
  store i32 1, ptr %15, align 4
  call void @llvm.lifetime.end.p0(i64 4, ptr %18) #5
  br label %135

125:                                              ; preds = %54
  %126 = load i32, ptr %11, align 4, !tbaa !11
  %127 = icmp slt i32 %126, 0
  br i1 %127, label %128, label %130

128:                                              ; preds = %125
  %129 = load i32, ptr %8, align 4, !tbaa !11
  store i32 %129, ptr %10, align 4, !tbaa !11
  br label %133

130:                                              ; preds = %125
  %131 = load i32, ptr %8, align 4, !tbaa !11
  %132 = add nsw i32 %131, 1
  store i32 %132, ptr %9, align 4, !tbaa !11
  br label %133

133:                                              ; preds = %130, %128
  br label %134

134:                                              ; preds = %133
  store i32 0, ptr %15, align 4
  br label %135

135:                                              ; preds = %134, %124
  call void @llvm.lifetime.end.p0(i64 8, ptr %17) #5
  %136 = load i32, ptr %15, align 4
  switch i32 %136, label %139 [
    i32 0, label %137
  ]

137:                                              ; preds = %135
  br label %50, !llvm.loop !41

138:                                              ; preds = %50
  store i8 0, ptr %4, align 1
  store i32 1, ptr %15, align 4
  br label %139

139:                                              ; preds = %138, %135, %47
  call void @llvm.lifetime.end.p0(i64 8, ptr %16) #5
  br label %140

140:                                              ; preds = %139, %25, %21
  call void @llvm.lifetime.end.p0(i64 4, ptr %14) #5
  call void @llvm.lifetime.end.p0(i64 4, ptr %13) #5
  call void @llvm.lifetime.end.p0(i64 4, ptr %12) #5
  call void @llvm.lifetime.end.p0(i64 4, ptr %11) #5
  call void @llvm.lifetime.end.p0(i64 4, ptr %10) #5
  call void @llvm.lifetime.end.p0(i64 4, ptr %9) #5
  call void @llvm.lifetime.end.p0(i64 4, ptr %8) #5
  %141 = load i8, ptr %4, align 1
  ret i8 %141
}